target datalayout = "e-m:e-p270:32:32-p271:32:32-p272:64:64-i64:64-i128:128-f80:128-n8:16:32:64-S128"
target triple = "x86_64-pc-linux-gnu"

%"class.boost::urls::detail::query_ref" = type <{ ptr, ptr, i64, i64, i64, i8, [7 x i8] }>
%"class.boost::urls::params_encoded_ref" = type { %"class.boost::urls::params_encoded_base", ptr }
%"class.boost::urls::params_encoded_base" = type { %"class.boost::urls::detail::query_ref" }
%"class.boost::urls::params_encoded_base::iterator" = type { %"struct.boost::urls::detail::params_iter_impl" }
%"struct.boost::urls::detail::params_iter_impl" = type { [8 x i8], %"class.boost::urls::detail::query_ref", i64, i64, i64, i64, i64, i64 }
%"class.boost::core::basic_string_view" = type { ptr, i64 }
%"struct.boost::urls::detail::any_params_iter.base" = type <{ ptr, %"class.boost::core::basic_string_view", %"class.boost::core::basic_string_view", i8 }>
%"struct.boost::urls::detail::query_iter" = type <{ %"struct.boost::urls::detail::any_params_iter.base", [7 x i8], %"class.boost::core::basic_string_view", i64, ptr, i8, [7 x i8] }>

@.str = private unnamed_addr constant [1 x i8] zeroinitializer, align 1

; Function Attrs: mustprogress nounwind uwtable
define linkonce_odr hidden void @_ZN5boost4urls19params_encoded_base8iteratorC2ERKNS0_6detail16params_iter_implE(ptr noundef nonnull align 8 dereferenceable(104) %0, ptr noundef nonnull align 8 dereferenceable(104) %1) unnamed_addr #2 comdat align 2 {
  %3 = alloca ptr, align 8
  %4 = alloca ptr, align 8
  store ptr %0, ptr %3, align 8, !tbaa !3
  store ptr %1, ptr %4, align 8, !tbaa !3
  %5 = load ptr, ptr %3, align 8
  %6 = getelementptr inbounds nuw %"class.boost::urls::params_encoded_base::iterator", ptr %5, i32 0, i32 0
  %7 = load ptr, ptr %4, align 8, !tbaa !3
  call void @llvm.memcpy.p0.p0.i64(ptr align 8 %6, ptr align 8 %7, i64 104, i1 false)
  ret void
}

; Function Attrs: mustprogress nounwind uwtable
define linkonce_odr hidden void @_ZN5boost4core17basic_string_viewIcEC2EPKcm(ptr noundef nonnull align 8 dereferenceable(16) %0, ptr noundef %1, i64 noundef %2) unnamed_addr #2 comdat align 2 {
  %4 = alloca ptr, align 8
  %5 = alloca ptr, align 8
  %6 = alloca i64, align 8
  store ptr %0, ptr %4, align 8, !tbaa !3
  store ptr %1, ptr %5, align 8, !tbaa !3
  store i64 %2, ptr %6, align 8, !tbaa !19
  %7 = load ptr, ptr %4, align 8
  %8 = getelementptr inbounds nuw %"class.boost::core::basic_string_view", ptr %7, i32 0, i32 0
  %9 = load ptr, ptr %5, align 8, !tbaa !3
  store ptr %9, ptr %8, align 8, !tbaa !42
  %10 = getelementptr inbounds nuw %"class.boost::core::basic_string_view", ptr %7, i32 0, i32 1
  %11 = load i64, ptr %6, align 8, !tbaa !19
  store i64 %11, ptr %10, align 8, !tbaa !43
  ret void
}

; Function Attrs: mustprogress nounwind uwtable
define void @_ZN5boost4urls18params_encoded_ref5eraseENS0_19params_encoded_base8iteratorES3_(ptr dead_on_unwind noalias writable sret(%"class.boost::urls::params_encoded_base::iterator") align 8 %0, ptr noundef nonnull align 8 dereferenceable(56) %1, ptr noundef byval(%"class.boost::urls::params_encoded_base::iterator") align 8 %2, ptr noundef byval(%"class.boost::urls::params_encoded_base::iterator") align 8 %3) #2 align 2 personality ptr @__gxx_personality_v0 {
  %5 = alloca ptr, align 8
  %6 = alloca %"class.boost::core::basic_string_view", align 8
  %7 = alloca %"struct.boost::urls::detail::params_iter_impl", align 8
  %8 = alloca %"struct.boost::urls::detail::query_iter", align 8
  %9 = alloca %"class.boost::core::basic_string_view", align 8
  store ptr %1, ptr %5, align 8, !tbaa !3
  %10 = load ptr, ptr %5, align 8
  call void @llvm.lifetime.start.p0(i64 16, ptr %6) #11
  call void @_ZN5boost4core17basic_string_viewIcEC2EPKcm(ptr noundef nonnull align 8 dereferenceable(16) %6, ptr noundef @.str, i64 noundef 0) #11
  call void @llvm.lifetime.start.p0(i64 104, ptr %7) #11
  %11 = getelementptr inbounds nuw %"class.boost::urls::params_encoded_ref", ptr %10, i32 0, i32 1
  %12 = load ptr, ptr %11, align 8, !tbaa !7
  %13 = getelementptr inbounds nuw %"class.boost::urls::params_encoded_base::iterator", ptr %2, i32 0, i32 0
  %14 = getelementptr inbounds nuw %"class.boost::urls::params_encoded_base::iterator", ptr %3, i32 0, i32 0
  call void @llvm.lifetime.start.p0(i64 88, ptr %8) #11
  call void @llvm.memcpy.p0.p0.i64(ptr align 8 %9, ptr align 8 %6, i64 16, i1 false), !tbaa.struct !41
  %15 = getelementptr inbounds nuw { ptr, i64 }, ptr %9, i32 0, i32 0
  %16 = load ptr, ptr %15, align 8
  %17 = getelementptr inbounds nuw { ptr, i64 }, ptr %9, i32 0, i32 1
  %18 = load i64, ptr %17, align 8
  call void @_ZN5boost4urls6detail10query_iterC1ENS_4core17basic_string_viewIcEEb(ptr noundef nonnull align 8 dereferenceable(81) %8, ptr %16, i64 %18, i1 noundef zeroext false) #11
  invoke void @_ZN5boost4urls8url_base11edit_paramsERKNS0_6detail16params_iter_implES5_ONS2_15any_params_iterE(ptr dead_on_unwind writable sret(%"struct.boost::urls::detail::params_iter_impl") align 8 %7, ptr noundef nonnull align 8 dereferenceable(216) %12, ptr noundef nonnull align 8 dereferenceable(104) %13, ptr noundef nonnull align 8 dereferenceable(104) %14, ptr noundef nonnull align 8 dereferenceable(41) %8)
          to label %19 unwind label %21

19:                                               ; preds = %4
  invoke void @_ZN5boost4urls19params_encoded_base8iteratorC2ERKNS0_6detail16params_iter_implE(ptr noundef nonnull align 8 dereferenceable(104) %0, ptr noundef nonnull align 8 dereferenceable(104) %7)
          to label %20 unwind label %21

20:                                               ; preds = %19
  call void @_ZN5boost4urls6detail15any_params_iterD2Ev(ptr noundef nonnull align 8 dereferenceable(81) %8) #11
  call void @llvm.lifetime.end.p0(i64 88, ptr %8) #11
  call void @llvm.lifetime.end.p0(i64 104, ptr %7) #11
  call void @llvm.lifetime.end.p0(i64 16, ptr %6) #11
  ret void

21:                                               ; preds = %19, %4
  %22 = landingpad { ptr, i32 }
          catch ptr null
  %23 = extractvalue { ptr, i32 } %22, 0
  call void @__clang_call_terminate(ptr %23) #12
  unreachable
}