; Function Attrs: mustprogress nounwind uwtable
define void @_ZN5boost4urls18params_encoded_ref5eraseENS0_19params_encoded_base8iteratorES3_(ptr dead_on_unwind noalias nocapture writable writeonly sret(%"class.boost::urls::params_encoded_base::iterator") align 8 %0, ptr nocapture noundef nonnull readonly align 8 dereferenceable(56) %1, ptr noundef byval(%"class.boost::urls::params_encoded_base::iterator") align 8 %2, ptr noundef byval(%"class.boost::urls::params_encoded_base::iterator") align 8 %3) local_unnamed_addr #3 align 2 personality ptr @__gxx_personality_v0 {
  %5 = alloca %"struct.boost::urls::detail::params_iter_impl", align 8
  %6 = alloca %"struct.boost::urls::detail::query_iter", align 8
  call void @llvm.lifetime.start.p0(i64 104, ptr nonnull %5) #12
  %7 = getelementptr inbounds nuw i8, ptr %1, i64 48
  %8 = load ptr, ptr %7, align 8, !tbaa !3
  call void @llvm.lifetime.start.p0(i64 88, ptr nonnull %6) #12
  call void @_ZN5boost4urls6detail10query_iterC1ENS_4core17basic_string_viewIcEEb(ptr noundef nonnull align 8 dereferenceable(81) %6, ptr nonnull @.str, i64 0, i1 noundef zeroext false) #12
  invoke void @_ZN5boost4urls8url_base11edit_paramsERKNS0_6detail16params_iter_implES5_ONS2_15any_params_iterE(ptr dead_on_unwind nonnull writable sret(%"struct.boost::urls::detail::params_iter_impl") align 8 %5, ptr noundef nonnull align 8 dereferenceable(216) %8, ptr noundef nonnull align 8 dereferenceable(104) %2, ptr noundef nonnull align 8 dereferenceable(104) %3, ptr noundef nonnull align 8 dereferenceable(41) %6)
          to label %9 unwind label %10

9:                                                ; preds = %4
  call void @llvm.memcpy.p0.p0.i64(ptr noundef nonnull align 8 dereferenceable(104) %0, ptr noundef nonnull align 8 dereferenceable(104) %5, i64 104, i1 false)
  call void @_ZN5boost4urls6detail15any_params_iterD2Ev(ptr noundef nonnull align 8 dereferenceable(81) %6) #12
  call void @llvm.lifetime.end.p0(i64 88, ptr nonnull %6) #12
  call void @llvm.lifetime.end.p0(i64 104, ptr nonnull %5) #12
  ret void

10:                                               ; preds = %4
  %11 = landingpad { ptr, i32 }
          catch ptr null
  %12 = extractvalue { ptr, i32 } %11, 0
  call void @__clang_call_terminate(ptr %12) #13
  unreachable
}